target datalayout = "e-m:e-p270:32:32-p271:32:32-p272:64:64-i64:64-i128:128-f80:128-n8:16:32:64-S128"
target triple = "x86_64-pc-linux-gnu"

%struct.io_encoding_set_args = type { ptr, i64, i64, i64 }

; Function Attrs: nounwind sspstrong uwtable
define internal i64 @io_encoding_set_v(i64 noundef %0) #0 {
  %2 = alloca i64, align 8
  %3 = alloca ptr, align 8
  store i64 %0, ptr %2, align 8, !tbaa !32
  call void @llvm.lifetime.start.p0(i64 8, ptr %3) #28
  %4 = load i64, ptr %2, align 8, !tbaa !32
  %5 = inttoptr i64 %4 to ptr
  store ptr %5, ptr %3, align 8, !tbaa !367
  %6 = load ptr, ptr %3, align 8, !tbaa !367
  %7 = getelementptr inbounds nuw %struct.io_encoding_set_args, ptr %6, i32 0, i32 0
  %8 = load ptr, ptr %7, align 8, !tbaa !171
  %9 = load ptr, ptr %3, align 8, !tbaa !367
  %10 = getelementptr inbounds nuw %struct.io_encoding_set_args, ptr %9, i32 0, i32 1
  %11 = load i64, ptr %10, align 8, !tbaa !173
  %12 = load ptr, ptr %3, align 8, !tbaa !367
  %13 = getelementptr inbounds nuw %struct.io_encoding_set_args, ptr %12, i32 0, i32 2
  %14 = load i64, ptr %13, align 8, !tbaa !174
  %15 = load ptr, ptr %3, align 8, !tbaa !367
  %16 = getelementptr inbounds nuw %struct.io_encoding_set_args, ptr %15, i32 0, i32 3
  %17 = load i64, ptr %16, align 8, !tbaa !175
  call void @io_encoding_set(ptr noundef %8, i64 noundef %11, i64 noundef %14, i64 noundef %17)
  call void @llvm.lifetime.end.p0(i64 8, ptr %3) #28
  ret i64 4
}