; Function Attrs: nounwind sspstrong uwtable
define internal noundef i64 @io_encoding_set_v(i64 noundef %0) #0 {
  %2 = inttoptr i64 %0 to ptr
  %3 = load ptr, ptr %2, align 8, !tbaa !226
  %4 = getelementptr inbounds nuw i8, ptr %2, i64 8
  %5 = load i64, ptr %4, align 8, !tbaa !228
  %6 = getelementptr inbounds nuw i8, ptr %2, i64 16
  %7 = load i64, ptr %6, align 8, !tbaa !229
  %8 = getelementptr inbounds nuw i8, ptr %2, i64 24
  %9 = load i64, ptr %8, align 8, !tbaa !230
  tail call fastcc void @io_encoding_set(ptr noundef %3, i64 noundef %5, i64 noundef %7, i64 noundef %9)
  ret i64 4
}